target datalayout = "e-m:e-p270:32:32-p271:32:32-p272:64:64-i64:64-i128:128-f80:128-n8:16:32:64-S128"
target triple = "x86_64-pc-linux-gnu"

%struct.Abc_Frame_t_ = type { ptr, ptr, ptr, ptr, ptr, ptr, ptr, ptr, ptr, ptr, i32, i32, i32, i32, i32, ptr, float, float, i32, i32, ptr, ptr, ptr, double, double, ptr, ptr, ptr, ptr, ptr, ptr, ptr, ptr, ptr, ptr, ptr, ptr, float, ptr, i32, ptr, ptr, ptr, ptr, ptr, i32, i32, i32, i32, i32, i32, ptr, ptr, ptr, ptr, ptr, ptr, i32, i32, ptr, ptr, ptr, ptr, ptr, ptr, ptr, ptr, ptr, ptr, ptr, ptr, ptr, ptr, ptr, ptr, ptr, ptr, ptr, ptr, ptr, ptr, ptr, ptr, ptr, ptr, ptr, ptr, ptr, ptr }

@.str.45 = private unnamed_addr constant [33 x i8] c"   -h \09\09print the command usage\0A\00", align 1
@.str.65 = private unnamed_addr constant [2 x i8] c"h\00", align 1
@.str.73 = private unnamed_addr constant [38 x i8] c"usage: alias [-h] [command [string]]\0A\00", align 1

; Function Attrs: nounwind uwtable
define internal i32 @CmdCommandAlias(ptr noundef %0, i32 noundef %1, ptr noundef %2) #0 {
  %4 = alloca i32, align 4
  %5 = alloca ptr, align 8
  %6 = alloca i32, align 4
  %7 = alloca ptr, align 8
  %8 = alloca ptr, align 8
  %9 = alloca ptr, align 8
  %10 = alloca i32, align 4
  store ptr %0, ptr %5, align 8
  store i32 %1, ptr %6, align 4
  store ptr %2, ptr %7, align 8
  call void (...) @Extra_UtilGetoptReset()
  br label %11

11:                                               ; preds = %3
  %12 = load i32, ptr %6, align 4
  %13 = load ptr, ptr %7, align 8
  %14 = call i32 @Extra_UtilGetopt(i32 noundef %12, ptr noundef %13, ptr noundef @.str.65)
  store i32 %14, ptr %10, align 4
  %15 = icmp ne i32 %14, -1
  br i1 %15, label %16, label %20

16:                                               ; preds = %11
  %17 = load i32, ptr %10, align 4
  switch i32 %17, label %19 [
    i32 104, label %18
  ]

18:                                               ; preds = %16
  br label %64

19:                                               ; preds = %16
  br label %64

20:                                               ; preds = %11
  %21 = load i32, ptr %6, align 4
  %22 = icmp eq i32 %21, 1
  br i1 %22, label %23, label %27

23:                                               ; preds = %20
  %24 = load ptr, ptr %5, align 8
  %25 = getelementptr inbounds %struct.Abc_Frame_t_, ptr %24, i32 0, i32 3
  %26 = load ptr, ptr %25, align 8
  call void @CmdPrintTable(ptr noundef %26, i32 noundef 1)
  store i32 0, ptr %4, align 4
  br label %73

27:                                               ; preds = %20
  %28 = load i32, ptr %6, align 4
  %29 = icmp eq i32 %28, 2
  br i1 %29, label %30, label %43

30:                                               ; preds = %27
  %31 = load ptr, ptr %5, align 8
  %32 = getelementptr inbounds %struct.Abc_Frame_t_, ptr %31, i32 0, i32 3
  %33 = load ptr, ptr %32, align 8
  %34 = load ptr, ptr %7, align 8
  %35 = getelementptr inbounds ptr, ptr %34, i64 1
  %36 = load ptr, ptr %35, align 8
  %37 = call i32 @st__lookup(ptr noundef %33, ptr noundef %36, ptr noundef %9)
  %38 = icmp ne i32 %37, 0
  br i1 %38, label %39, label %42

39:                                               ; preds = %30
  %40 = load ptr, ptr %5, align 8
  %41 = load ptr, ptr %9, align 8
  call void @CmdCommandAliasPrint(ptr noundef %40, ptr noundef %41)
  br label %42

42:                                               ; preds = %39, %30
  store i32 0, ptr %4, align 4
  br label %73

43:                                               ; preds = %27
  br label %44

44:                                               ; preds = %43
  %45 = load ptr, ptr %7, align 8
  %46 = getelementptr inbounds ptr, ptr %45, i64 1
  %47 = load ptr, ptr %46, align 8
  store ptr %47, ptr %8, align 8
  %48 = load ptr, ptr %5, align 8
  %49 = getelementptr inbounds %struct.Abc_Frame_t_, ptr %48, i32 0, i32 3
  %50 = load ptr, ptr %49, align 8
  %51 = call i32 @st__delete(ptr noundef %50, ptr noundef %8, ptr noundef %9)
  %52 = icmp ne i32 %51, 0
  br i1 %52, label %53, label %55

53:                                               ; preds = %44
  %54 = load ptr, ptr %9, align 8
  call void @CmdCommandAliasFree(ptr noundef %54)
  br label %55

55:                                               ; preds = %53, %44
  %56 = load ptr, ptr %5, align 8
  %57 = load ptr, ptr %7, align 8
  %58 = getelementptr inbounds ptr, ptr %57, i64 1
  %59 = load ptr, ptr %58, align 8
  %60 = load i32, ptr %6, align 4
  %61 = sub nsw i32 %60, 2
  %62 = load ptr, ptr %7, align 8
  %63 = getelementptr inbounds ptr, ptr %62, i64 2
  call void @CmdCommandAliasAdd(ptr noundef %56, ptr noundef %59, i32 noundef %61, ptr noundef %63)
  store i32 0, ptr %4, align 4
  br label %73

64:                                               ; preds = %19, %18
  %65 = load ptr, ptr %5, align 8
  %66 = getelementptr inbounds %struct.Abc_Frame_t_, ptr %65, i32 0, i32 21
  %67 = load ptr, ptr %66, align 8
  %68 = call i32 (ptr, ptr, ...) @fprintf(ptr noundef %67, ptr noundef @.str.73) #9
  %69 = load ptr, ptr %5, align 8
  %70 = getelementptr inbounds %struct.Abc_Frame_t_, ptr %69, i32 0, i32 21
  %71 = load ptr, ptr %70, align 8
  %72 = call i32 (ptr, ptr, ...) @fprintf(ptr noundef %71, ptr noundef @.str.45) #9
  store i32 1, ptr %4, align 4
  br label %73

73:                                               ; preds = %64, %55, %42, %23
  %74 = load i32, ptr %4, align 4
  ret i32 %74
}