; Function Attrs: nounwind uwtable
define internal range(i32 0, 2) i32 @CmdCommandAlias(ptr noundef %0, i32 noundef %1, ptr noundef %2) #0 {
  %4 = alloca ptr, align 8
  %5 = alloca ptr, align 8
  tail call void (...) @Extra_UtilGetoptReset() #17
  %6 = tail call i32 @Extra_UtilGetopt(i32 noundef %1, ptr noundef %2, ptr noundef nonnull @.str.65) #17
  %.not = icmp eq i32 %6, -1
  br i1 %.not, label %7, label %31

7:                                                ; preds = %3
  switch i32 %1, label %19 [
    i32 1, label %8
    i32 2, label %11
  ]

8:                                                ; preds = %7
  %9 = getelementptr inbounds nuw i8, ptr %0, i64 24
  %10 = load ptr, ptr %9, align 8
  tail call void @CmdPrintTable(ptr noundef %10, i32 noundef 1) #17
  br label %37

11:                                               ; preds = %7
  %12 = getelementptr inbounds nuw i8, ptr %0, i64 24
  %13 = load ptr, ptr %12, align 8
  %14 = getelementptr inbounds nuw i8, ptr %2, i64 8
  %15 = load ptr, ptr %14, align 8
  %16 = call i32 @st__lookup(ptr noundef %13, ptr noundef %15, ptr noundef nonnull %5) #17
  %.not18 = icmp eq i32 %16, 0
  br i1 %.not18, label %37, label %17

17:                                               ; preds = %11
  %18 = load ptr, ptr %5, align 8
  call void @CmdCommandAliasPrint(ptr noundef nonnull %0, ptr noundef %18) #17
  br label %37

19:                                               ; preds = %7
  %20 = getelementptr inbounds nuw i8, ptr %2, i64 8
  %21 = load ptr, ptr %20, align 8
  store ptr %21, ptr %4, align 8
  %22 = getelementptr inbounds nuw i8, ptr %0, i64 24
  %23 = load ptr, ptr %22, align 8
  %24 = call i32 @st__delete(ptr noundef %23, ptr noundef nonnull %4, ptr noundef nonnull %5) #17
  %.not17 = icmp eq i32 %24, 0
  br i1 %.not17, label %27, label %25

25:                                               ; preds = %19
  %26 = load ptr, ptr %5, align 8
  call void @CmdCommandAliasFree(ptr noundef %26) #17
  br label %27

27:                                               ; preds = %25, %19
  %28 = load ptr, ptr %20, align 8
  %29 = add nsw i32 %1, -2
  %30 = getelementptr inbounds nuw i8, ptr %2, i64 16
  call void @CmdCommandAliasAdd(ptr noundef nonnull %0, ptr noundef %28, i32 noundef %29, ptr noundef nonnull %30) #17
  br label %37

31:                                               ; preds = %3
  %32 = getelementptr inbounds nuw i8, ptr %0, i64 136
  %33 = load ptr, ptr %32, align 8
  %34 = tail call i64 @fwrite(ptr nonnull @.str.73, i64 37, i64 1, ptr %33)
  %35 = load ptr, ptr %32, align 8
  %36 = tail call i64 @fwrite(ptr nonnull @.str.45, i64 32, i64 1, ptr %35)
  br label %37

37:                                               ; preds = %11, %17, %31, %27, %8
  %.0 = phi i32 [ 1, %31 ], [ 0, %8 ], [ 0, %27 ], [ 0, %17 ], [ 0, %11 ]
  ret i32 %.0
}